target datalayout = "e-m:e-p270:32:32-p271:32:32-p272:64:64-i64:64-i128:128-f80:128-n8:16:32:64-S128"
target triple = "x86_64-pc-linux-gnu"

%"class.nori::Mesh" = type { %"class.nori::NoriObject", %"class.std::__cxx11::basic_string", %"class.Eigen::Matrix", %"class.Eigen::Matrix", %"class.Eigen::Matrix", %"class.Eigen::Matrix.2", ptr, ptr, %"struct.nori::TBoundingBox" }
%"class.nori::NoriObject" = type { ptr }
%"class.std::__cxx11::basic_string" = type { %"struct.std::__cxx11::basic_string<char>::_Alloc_hider", i64, %union.anon }
%"struct.std::__cxx11::basic_string<char>::_Alloc_hider" = type { ptr }
%union.anon = type { i64, [8 x i8] }
%"class.Eigen::Matrix" = type { %"class.Eigen::PlainObjectBase" }
%"class.Eigen::PlainObjectBase" = type { %"class.Eigen::DenseStorage" }
%"class.Eigen::DenseStorage" = type { ptr, i64, i64 }
%"class.Eigen::Matrix.2" = type { %"class.Eigen::PlainObjectBase.3" }
%"class.Eigen::PlainObjectBase.3" = type { %"class.Eigen::DenseStorage.10" }
%"class.Eigen::DenseStorage.10" = type { ptr, i64, i64 }
%"struct.nori::TBoundingBox" = type { %"struct.nori::TPoint", %"struct.nori::TPoint" }
%"struct.nori::TPoint" = type { %"class.Eigen::Matrix.11" }
%"class.Eigen::Matrix.11" = type { %"class.Eigen::PlainObjectBase.12" }
%"class.Eigen::PlainObjectBase.12" = type { %"class.Eigen::DenseStorage.19" }
%"class.Eigen::DenseStorage.19" = type { %"struct.Eigen::internal::plain_array" }
%"struct.Eigen::internal::plain_array" = type { [3 x float] }

@.str.1 = private unnamed_addr constant [49 x i8] c"Mesh: tried to register multiple BSDF instances!\00", align 1
@_ZTIN4nori13NoriExceptionE = linkonce_odr hidden constant { ptr, ptr, ptr } { ptr getelementptr inbounds (ptr, ptr @_ZTVN10__cxxabiv120__si_class_type_infoE, i64 2), ptr @_ZTSN4nori13NoriExceptionE, ptr @_ZTISt13runtime_error }, comdat, align 8
@.str.2 = private unnamed_addr constant [52 x i8] c"Mesh: tried to register multiple Emitter instances!\00", align 1
@.str.3 = private unnamed_addr constant [39 x i8] c"Mesh::addChild(<%s>) is not supported!\00", align 1

; Function Attrs: mustprogress uwtable
define hidden void @_ZN4nori4Mesh8addChildEPNS_10NoriObjectE(ptr noundef nonnull align 8 dereferenceable(176) %0, ptr noundef %1) unnamed_addr #4 align 2 personality ptr @__gxx_personality_v0 {
  %3 = alloca ptr, align 8
  %4 = alloca ptr, align 8
  %5 = alloca ptr, align 8
  %6 = alloca i32, align 4
  %7 = alloca ptr, align 8
  %8 = alloca %"class.std::__cxx11::basic_string", align 8
  %9 = alloca i1, align 1
  store ptr %0, ptr %3, align 8
  store ptr %1, ptr %4, align 8
  %10 = load ptr, ptr %3, align 8
  %11 = load ptr, ptr %4, align 8
  %12 = load ptr, ptr %11, align 8
  %13 = getelementptr inbounds ptr, ptr %12, i64 2
  %14 = load ptr, ptr %13, align 8
  %15 = call noundef i32 %14(ptr noundef nonnull align 8 dereferenceable(8) %11)
  switch i32 %15, label %45 [
    i32 2, label %16
    i32 4, label %30
  ]

16:                                               ; preds = %2
  %17 = getelementptr inbounds %"class.nori::Mesh", ptr %10, i32 0, i32 6
  %18 = load ptr, ptr %17, align 8
  %19 = icmp ne ptr %18, null
  br i1 %19, label %20, label %27

20:                                               ; preds = %16
  %21 = call ptr @__cxa_allocate_exception(i64 16) #3
  invoke void @_ZN4nori13NoriExceptionC2IJEEEPKcDpRKT_(ptr noundef nonnull align 8 dereferenceable(16) %21, ptr noundef @.str.1)
          to label %22 unwind label %23

22:                                               ; preds = %20
  call void @__cxa_throw(ptr %21, ptr @_ZTIN4nori13NoriExceptionE, ptr @_ZN4nori13NoriExceptionD2Ev) #17
  unreachable

23:                                               ; preds = %20
  %24 = landingpad { ptr, i32 }
          cleanup
  %25 = extractvalue { ptr, i32 } %24, 0
  store ptr %25, ptr %5, align 8
  %26 = extractvalue { ptr, i32 } %24, 1
  store i32 %26, ptr %6, align 4
  call void @__cxa_free_exception(ptr %21) #3
  br label %68

27:                                               ; preds = %16
  %28 = load ptr, ptr %4, align 8
  %29 = getelementptr inbounds %"class.nori::Mesh", ptr %10, i32 0, i32 6
  store ptr %28, ptr %29, align 8
  br label %67

30:                                               ; preds = %2
  %31 = load ptr, ptr %4, align 8
  store ptr %31, ptr %7, align 8
  %32 = getelementptr inbounds %"class.nori::Mesh", ptr %10, i32 0, i32 7
  %33 = load ptr, ptr %32, align 8
  %34 = icmp ne ptr %33, null
  br i1 %34, label %35, label %42

35:                                               ; preds = %30
  %36 = call ptr @__cxa_allocate_exception(i64 16) #3
  invoke void @_ZN4nori13NoriExceptionC2IJEEEPKcDpRKT_(ptr noundef nonnull align 8 dereferenceable(16) %36, ptr noundef @.str.2)
          to label %37 unwind label %38

37:                                               ; preds = %35
  call void @__cxa_throw(ptr %36, ptr @_ZTIN4nori13NoriExceptionE, ptr @_ZN4nori13NoriExceptionD2Ev) #17
  unreachable

38:                                               ; preds = %35
  %39 = landingpad { ptr, i32 }
          cleanup
  %40 = extractvalue { ptr, i32 } %39, 0
  store ptr %40, ptr %5, align 8
  %41 = extractvalue { ptr, i32 } %39, 1
  store i32 %41, ptr %6, align 4
  call void @__cxa_free_exception(ptr %36) #3
  br label %68

42:                                               ; preds = %30
  %43 = load ptr, ptr %7, align 8
  %44 = getelementptr inbounds %"class.nori::Mesh", ptr %10, i32 0, i32 7
  store ptr %43, ptr %44, align 8
  br label %67

45:                                               ; preds = %2
  store i1 true, ptr %9, align 1
  %46 = call ptr @__cxa_allocate_exception(i64 16) #3
  %47 = load ptr, ptr %4, align 8
  %48 = load ptr, ptr %47, align 8
  %49 = getelementptr inbounds ptr, ptr %48, i64 2
  %50 = load ptr, ptr %49, align 8
  %51 = invoke noundef i32 %50(ptr noundef nonnull align 8 dereferenceable(8) %47)
          to label %52 unwind label %55

52:                                               ; preds = %45
  invoke void @_ZN4nori10NoriObject13classTypeNameB5cxx11ENS0_10EClassTypeE(ptr dead_on_unwind writable sret(%"class.std::__cxx11::basic_string") align 8 %8, i32 noundef %51)
          to label %53 unwind label %55

53:                                               ; preds = %52
  invoke void @_ZN4nori13NoriExceptionC2IJNSt7__cxx1112basic_stringIcSt11char_traitsIcESaIcEEEEEEPKcDpRKT_(ptr noundef nonnull align 8 dereferenceable(16) %46, ptr noundef @.str.3, ptr noundef nonnull align 8 dereferenceable(32) %8)
          to label %54 unwind label %59

54:                                               ; preds = %53
  store i1 false, ptr %9, align 1
  invoke void @__cxa_throw(ptr %46, ptr @_ZTIN4nori13NoriExceptionE, ptr @_ZN4nori13NoriExceptionD2Ev) #17
          to label %73 unwind label %59

55:                                               ; preds = %52, %45
  %56 = landingpad { ptr, i32 }
          cleanup
  %57 = extractvalue { ptr, i32 } %56, 0
  store ptr %57, ptr %5, align 8
  %58 = extractvalue { ptr, i32 } %56, 1
  store i32 %58, ptr %6, align 4
  br label %63

59:                                               ; preds = %54, %53
  %60 = landingpad { ptr, i32 }
          cleanup
  %61 = extractvalue { ptr, i32 } %60, 0
  store ptr %61, ptr %5, align 8
  %62 = extractvalue { ptr, i32 } %60, 1
  store i32 %62, ptr %6, align 4
  call void @_ZNSt7__cxx1112basic_stringIcSt11char_traitsIcESaIcEED1Ev(ptr noundef nonnull align 8 dereferenceable(32) %8) #3
  br label %63

63:                                               ; preds = %59, %55
  %64 = load i1, ptr %9, align 1
  br i1 %64, label %65, label %66

65:                                               ; preds = %63
  call void @__cxa_free_exception(ptr %46) #3
  br label %66

66:                                               ; preds = %65, %63
  br label %68

67:                                               ; preds = %42, %27
  ret void

68:                                               ; preds = %66, %38, %23
  %69 = load ptr, ptr %5, align 8
  %70 = load i32, ptr %6, align 4
  %71 = insertvalue { ptr, i32 } poison, ptr %69, 0
  %72 = insertvalue { ptr, i32 } %71, i32 %70, 1
  resume { ptr, i32 } %72

73:                                               ; preds = %54
  unreachable
}