; Function Attrs: mustprogress uwtable
define hidden void @_ZN4nori4Mesh8addChildEPNS_10NoriObjectE(ptr nocapture noundef nonnull align 8 dereferenceable(176) %0, ptr noundef %1) unnamed_addr #5 align 2 personality ptr @__gxx_personality_v0 {
  %3 = alloca %"class.std::__cxx11::basic_string", align 8
  %4 = load ptr, ptr %1, align 8
  %5 = getelementptr inbounds i8, ptr %4, i64 16
  %6 = load ptr, ptr %5, align 8
  %7 = tail call noundef i32 %6(ptr noundef nonnull align 8 dereferenceable(8) %1)
  switch i32 %7, label %24 [
    i32 2, label %8
    i32 4, label %16
  ]

8:                                                ; preds = %2
  %9 = getelementptr inbounds i8, ptr %0, i64 136
  %10 = load ptr, ptr %9, align 8
  %.not12 = icmp eq ptr %10, null
  br i1 %.not12, label %38, label %11

11:                                               ; preds = %8
  %12 = tail call ptr @__cxa_allocate_exception(i64 16) #21
  invoke void @_ZN4nori13NoriExceptionC2IJEEEPKcDpRKT_(ptr noundef nonnull align 8 dereferenceable(16) %12, ptr noundef nonnull @.str.1)
          to label %13 unwind label %14

13:                                               ; preds = %11
  tail call void @__cxa_throw(ptr nonnull %12, ptr nonnull @_ZTIN4nori13NoriExceptionE, ptr nonnull @_ZN4nori13NoriExceptionD2Ev) #24
  unreachable

14:                                               ; preds = %11
  %15 = landingpad { ptr, i32 }
          cleanup
  tail call void @__cxa_free_exception(ptr %12) #21
  br label %39

16:                                               ; preds = %2
  %17 = getelementptr inbounds i8, ptr %0, i64 144
  %18 = load ptr, ptr %17, align 8
  %.not = icmp eq ptr %18, null
  br i1 %.not, label %38, label %19

19:                                               ; preds = %16
  %20 = tail call ptr @__cxa_allocate_exception(i64 16) #21
  invoke void @_ZN4nori13NoriExceptionC2IJEEEPKcDpRKT_(ptr noundef nonnull align 8 dereferenceable(16) %20, ptr noundef nonnull @.str.2)
          to label %21 unwind label %22

21:                                               ; preds = %19
  tail call void @__cxa_throw(ptr nonnull %20, ptr nonnull @_ZTIN4nori13NoriExceptionE, ptr nonnull @_ZN4nori13NoriExceptionD2Ev) #24
  unreachable

22:                                               ; preds = %19
  %23 = landingpad { ptr, i32 }
          cleanup
  tail call void @__cxa_free_exception(ptr %20) #21
  br label %39

24:                                               ; preds = %2
  %25 = tail call ptr @__cxa_allocate_exception(i64 16) #21
  %26 = load ptr, ptr %1, align 8
  %27 = getelementptr inbounds i8, ptr %26, i64 16
  %28 = load ptr, ptr %27, align 8
  %29 = invoke noundef i32 %28(ptr noundef nonnull align 8 dereferenceable(8) %1)
          to label %30 unwind label %.thread

30:                                               ; preds = %24
  invoke void @_ZN4nori10NoriObject13classTypeNameB5cxx11ENS0_10EClassTypeE(ptr dead_on_unwind nonnull writable sret(%"class.std::__cxx11::basic_string") align 8 %3, i32 noundef %29)
          to label %31 unwind label %.thread

31:                                               ; preds = %30
  invoke void @_ZN4nori13NoriExceptionC2IJNSt7__cxx1112basic_stringIcSt11char_traitsIcESaIcEEEEEEPKcDpRKT_(ptr noundef nonnull align 8 dereferenceable(16) %25, ptr noundef nonnull @.str.3, ptr noundef nonnull align 8 dereferenceable(32) %3)
          to label %33 unwind label %.thread18

.thread18:                                        ; preds = %31
  %32 = landingpad { ptr, i32 }
          cleanup
  call void @_ZNSt7__cxx1112basic_stringIcSt11char_traitsIcESaIcEED1Ev(ptr noundef nonnull align 8 dereferenceable(32) %3) #21
  br label %37

33:                                               ; preds = %31
  invoke void @__cxa_throw(ptr nonnull %25, ptr nonnull @_ZTIN4nori13NoriExceptionE, ptr nonnull @_ZN4nori13NoriExceptionD2Ev) #24
          to label %40 unwind label %35

.thread:                                          ; preds = %24, %30
  %34 = landingpad { ptr, i32 }
          cleanup
  br label %37

35:                                               ; preds = %33
  %36 = landingpad { ptr, i32 }
          cleanup
  call void @_ZNSt7__cxx1112basic_stringIcSt11char_traitsIcESaIcEED1Ev(ptr noundef nonnull align 8 dereferenceable(32) %3) #21
  br label %39

37:                                               ; preds = %.thread18, %.thread
  %.pn17 = phi { ptr, i32 } [ %34, %.thread ], [ %32, %.thread18 ]
  call void @__cxa_free_exception(ptr %25) #21
  br label %39

38:                                               ; preds = %16, %8
  %.sink = phi ptr [ %9, %8 ], [ %17, %16 ]
  store ptr %1, ptr %.sink, align 8
  ret void

39:                                               ; preds = %35, %37, %22, %14
  %.pn.pn = phi { ptr, i32 } [ %.pn17, %37 ], [ %36, %35 ], [ %23, %22 ], [ %15, %14 ]
  resume { ptr, i32 } %.pn.pn

40:                                               ; preds = %33
  unreachable
}